; Function Attrs: nounwind uwtable
define noalias nonnull ptr @l_Lean_FileMap_utf8RangeToLspRange(ptr noundef %0, ptr noundef readonly captures(none) %1) local_unnamed_addr #1 {
  %3 = getelementptr inbounds nuw i8, ptr %1, i64 8
  %4 = load ptr, ptr %3, align 8, !tbaa !14
  %5 = ptrtoint ptr %0 to i64
  %6 = and i64 %5, 1
  %.not = icmp eq i64 %6, 0
  br i1 %.not, label %7, label %lean_inc.exit.i

7:                                                ; preds = %2
  %.val.i = load i32, ptr %0, align 4, !tbaa !4
  %8 = icmp sgt i32 %.val.i, 0
  br i1 %8, label %9, label %11, !prof !9

9:                                                ; preds = %7
  %10 = add nuw i32 %.val.i, 1
  store i32 %10, ptr %0, align 4, !tbaa !4
  br label %13

11:                                               ; preds = %7
  %.not.i = icmp eq i32 %.val.i, 0
  br i1 %.not.i, label %lean_inc.exit.i, label %12

12:                                               ; preds = %11
  tail call void @lean_inc_ref_cold(ptr noundef nonnull %0) #4
  %.val.i.i.pr = load i32, ptr %0, align 4, !tbaa !4
  br label %13

13:                                               ; preds = %12, %9
  %.val.i.i = phi i32 [ %.val.i.i.pr, %12 ], [ %10, %9 ]
  %14 = icmp sgt i32 %.val.i.i, 0
  br i1 %14, label %15, label %17, !prof !16

15:                                               ; preds = %13
  %16 = add nuw i32 %.val.i.i, 1
  store i32 %16, ptr %0, align 4, !tbaa !4
  br label %lean_inc.exit.i

17:                                               ; preds = %13
  %.not.i7.i = icmp eq i32 %.val.i.i, 0
  br i1 %.not.i7.i, label %lean_inc.exit.i, label %18

18:                                               ; preds = %17
  tail call void @lean_inc_ref_cold(ptr noundef nonnull %0) #4
  br label %lean_inc.exit.i

lean_inc.exit.i:                                  ; preds = %11, %2, %18, %17, %15
  %19 = tail call ptr @l_Lean_FileMap_toPosition(ptr noundef %0, ptr noundef %4) #4
  %20 = tail call ptr @l_Lean_FileMap_leanPosToLspPos(ptr noundef %0, ptr noundef %19)
  br i1 %.not, label %21, label %l_Lean_FileMap_utf8PosToLspPos.exit

21:                                               ; preds = %lean_inc.exit.i
  %22 = load i32, ptr %0, align 4, !tbaa !4
  %23 = icmp sgt i32 %22, 1
  br i1 %23, label %.thread30, label %27, !prof !9

.thread30:                                        ; preds = %21
  %24 = add nsw i32 %22, -1
  %25 = getelementptr inbounds nuw i8, ptr %1, i64 16
  %26 = load ptr, ptr %25, align 8, !tbaa !14
  br label %36

27:                                               ; preds = %21
  %.not.i.i = icmp eq i32 %22, 0
  br i1 %.not.i.i, label %.thread36, label %32

.thread36:                                        ; preds = %27
  %28 = getelementptr inbounds nuw i8, ptr %1, i64 16
  %29 = load ptr, ptr %28, align 8, !tbaa !14
  br label %lean_inc.exit.i14

l_Lean_FileMap_utf8PosToLspPos.exit:              ; preds = %lean_inc.exit.i
  %30 = getelementptr inbounds nuw i8, ptr %1, i64 16
  %31 = load ptr, ptr %30, align 8, !tbaa !14
  br label %lean_inc.exit.i14

32:                                               ; preds = %27
  tail call void @lean_dec_ref_cold(ptr noundef nonnull %0) #4
  %.val.i.i16.pr = load i32, ptr %0, align 4, !tbaa !4
  %33 = getelementptr inbounds nuw i8, ptr %1, i64 16
  %34 = load ptr, ptr %33, align 8, !tbaa !14
  %35 = icmp sgt i32 %.val.i.i16.pr, 0
  br i1 %35, label %36, label %39, !prof !17

36:                                               ; preds = %.thread30, %32
  %37 = phi ptr [ %26, %.thread30 ], [ %34, %32 ]
  %.val.i.i1632 = phi i32 [ %24, %.thread30 ], [ %.val.i.i16.pr, %32 ]
  %38 = add nuw i32 %.val.i.i1632, 1
  store i32 %38, ptr %0, align 4, !tbaa !4
  br label %lean_inc.exit.i14

39:                                               ; preds = %32
  %.not.i7.i17 = icmp eq i32 %.val.i.i16.pr, 0
  br i1 %.not.i7.i17, label %lean_inc.exit.i14, label %40

40:                                               ; preds = %39
  tail call void @lean_inc_ref_cold(ptr noundef nonnull %0) #4
  br label %lean_inc.exit.i14

lean_inc.exit.i14:                                ; preds = %.thread36, %l_Lean_FileMap_utf8PosToLspPos.exit, %40, %39, %36
  %41 = phi ptr [ %34, %40 ], [ %34, %39 ], [ %37, %36 ], [ %31, %l_Lean_FileMap_utf8PosToLspPos.exit ], [ %29, %.thread36 ]
  %42 = tail call ptr @l_Lean_FileMap_toPosition(ptr noundef %0, ptr noundef %41) #4
  %43 = tail call ptr @l_Lean_FileMap_leanPosToLspPos(ptr noundef %0, ptr noundef %42)
  br i1 %.not, label %44, label %l_Lean_FileMap_utf8PosToLspPos.exit18

44:                                               ; preds = %lean_inc.exit.i14
  %45 = load i32, ptr %0, align 4, !tbaa !4
  %46 = icmp sgt i32 %45, 1
  br i1 %46, label %47, label %49, !prof !9

47:                                               ; preds = %44
  %48 = add nsw i32 %45, -1
  store i32 %48, ptr %0, align 4, !tbaa !4
  br label %l_Lean_FileMap_utf8PosToLspPos.exit18

49:                                               ; preds = %44
  %.not.i.i15 = icmp eq i32 %45, 0
  br i1 %.not.i.i15, label %l_Lean_FileMap_utf8PosToLspPos.exit18, label %50

50:                                               ; preds = %49
  tail call void @lean_dec_ref_cold(ptr noundef nonnull %0) #4
  br label %l_Lean_FileMap_utf8PosToLspPos.exit18

l_Lean_FileMap_utf8PosToLspPos.exit18:            ; preds = %lean_inc.exit.i14, %47, %49, %50
  tail call void @lean_inc_heartbeat() #4
  %51 = tail call noalias ptr @mi_malloc_small(i64 noundef 24) #4
  %52 = icmp eq ptr %51, null
  br i1 %52, label %53, label %lean_alloc_ctor.exit

53:                                               ; preds = %l_Lean_FileMap_utf8PosToLspPos.exit18
  tail call void @lean_internal_panic_out_of_memory() #5
  unreachable

lean_alloc_ctor.exit:                             ; preds = %l_Lean_FileMap_utf8PosToLspPos.exit18
  %54 = getelementptr inbounds nuw i8, ptr %51, i64 4
  store i32 1, ptr %51, align 4, !tbaa !4
  store i32 131096, ptr %54, align 4
  %55 = getelementptr inbounds nuw i8, ptr %51, i64 8
  store ptr %20, ptr %55, align 8, !tbaa !14
  %56 = getelementptr inbounds nuw i8, ptr %51, i64 16
  store ptr %43, ptr %56, align 8, !tbaa !14
  ret ptr %51
}